target datalayout = "e-m:e-p270:32:32-p271:32:32-p272:64:64-i64:64-i128:128-f80:128-n8:16:32:64-S128"
target triple = "x86_64-pc-linux-gnu"

%struct.Vmem = type { ptr, i64, i64 }
%struct.ParseContext_ = type { %struct.TokenData, i32, %union.SourceSpan, %union.SourceSpan, ptr, %struct.Lexer }
%struct.TokenData = type { ptr, i64, %union.anon.86 }
%union.anon.86 = type { %struct.anon.89 }
%struct.anon.89 = type { %struct.Int128_, i8 }
%struct.Int128_ = type { i64, i64 }
%union.SourceSpan = type { i64 }
%struct.Lexer = type { ptr, ptr, ptr, ptr, i32, i32, ptr, ptr, ptr, %struct.TokenData, %union.SourceSpan, i32, i32 }
%struct.Ast_ = type { %union.SourceSpan, i32, i8, %union.anon.62 }
%union.anon.62 = type { %struct.AstDocDirective_ }
%struct.AstDocDirective_ = type { i8, %union.anon.65 }
%union.anon.65 = type { %struct.anon.66 }
%struct.anon.66 = type { ptr, %union.SourceSpan, i8 }
%struct.Expr_ = type { ptr, %union.SourceSpan, i16, %union.anon.30 }
%union.anon.30 = type { %struct.ExprAnySwitch }
%struct.ExprAnySwitch = type { i8, %union.anon.32 }
%union.anon.32 = type { %struct.anon.33 }
%struct.anon.33 = type { ptr, %union.SourceSpan, ptr }
%struct.AstCompoundStmt = type { i32 }
%struct.AstCtForeachStmt = type { i32, i32, i32, i32 }

@poisoned_ast = external global ptr, align 8
@.str.12 = private unnamed_addr constant [15 x i8] c"Expected '%s'.\00", align 1
@expr_arena = external global %struct.Vmem, align 8
@ast_arena = external global %struct.Vmem, align 8
@decl_arena = external global %struct.Vmem, align 8
@.str.41 = private unnamed_addr constant [39 x i8] c"Expected a compile time index variable\00", align 1
@.str.42 = private unnamed_addr constant [33 x i8] c"Expected a compile time variable\00", align 1
@.str.43 = private unnamed_addr constant [14 x i8] c"Expected ':'.\00", align 1

; Function Attrs: nounwind uwtable
define internal i32 @astid(ptr noundef %0) #0 {
  %2 = alloca ptr, align 8
  store ptr %0, ptr %2, align 8
  %3 = load ptr, ptr %2, align 8
  %4 = load ptr, ptr @ast_arena, align 8
  %5 = ptrtoint ptr %3 to i64
  %6 = ptrtoint ptr %4 to i64
  %7 = sub i64 %5, %6
  %8 = sdiv exact i64 %7, 48
  %9 = trunc i64 %8 to i32
  ret i32 %9
}

; Function Attrs: nounwind uwtable
define internal i32 @exprid(ptr noundef %0) #0 {
  %2 = alloca ptr, align 8
  store ptr %0, ptr %2, align 8
  %3 = load ptr, ptr %2, align 8
  %4 = load ptr, ptr @expr_arena, align 8
  %5 = ptrtoint ptr %3 to i64
  %6 = ptrtoint ptr %4 to i64
  %7 = sub i64 %5, %6
  %8 = sdiv exact i64 %7, 56
  %9 = trunc i64 %8 to i32
  ret i32 %9
}

; Function Attrs: nounwind uwtable
define internal i32 @declid(ptr noundef %0) #0 {
  %2 = alloca ptr, align 8
  store ptr %0, ptr %2, align 8
  %3 = load ptr, ptr %2, align 8
  %4 = load ptr, ptr @decl_arena, align 8
  %5 = ptrtoint ptr %3 to i64
  %6 = ptrtoint ptr %4 to i64
  %7 = sub i64 %5, %6
  %8 = sdiv exact i64 %7, 136
  %9 = trunc i64 %8 to i32
  ret i32 %9
}

; Function Attrs: nounwind uwtable
define internal ptr @ast_calloc() #0 {
  %1 = call ptr @vmem_alloc(ptr noundef @ast_arena, i64 noundef 48)
  ret ptr %1
}

; Function Attrs: nounwind uwtable
define internal ptr @parse_ct_foreach_stmt(ptr noundef %0) #0 {
  %2 = alloca ptr, align 8
  %3 = alloca ptr, align 8
  %4 = alloca ptr, align 8
  %5 = alloca ptr, align 8
  %6 = alloca i32, align 4
  %7 = alloca ptr, align 8
  %8 = alloca i32, align 4
  %9 = alloca %union.SourceSpan, align 8
  %10 = alloca i32, align 4
  %11 = alloca ptr, align 8
  %12 = alloca %union.SourceSpan, align 8
  %13 = alloca i32, align 4
  %14 = alloca ptr, align 8
  %15 = alloca ptr, align 8
  %16 = alloca ptr, align 8
  %17 = alloca i32, align 4
  %18 = alloca ptr, align 8
  %19 = alloca i32, align 4
  %20 = alloca ptr, align 8
  %21 = alloca i32, align 4
  %22 = alloca ptr, align 8
  %23 = alloca i1, align 1
  %24 = alloca ptr, align 8
  %25 = alloca i32, align 4
  %26 = alloca i1, align 1
  %27 = alloca ptr, align 8
  %28 = alloca i32, align 4
  %29 = alloca ptr, align 8
  %30 = alloca ptr, align 8
  %31 = alloca ptr, align 8
  %32 = alloca ptr, align 8
  %33 = alloca ptr, align 8
  %34 = alloca ptr, align 8
  %35 = alloca ptr, align 8
  %36 = alloca ptr, align 8
  %37 = alloca ptr, align 8
  store ptr %0, ptr %30, align 8
  %38 = load ptr, ptr %30, align 8
  store ptr %38, ptr %20, align 8
  store i32 11, ptr %21, align 4
  %39 = load i32, ptr %21, align 4
  %40 = load ptr, ptr %20, align 8
  %41 = getelementptr inbounds %struct.ParseContext_, ptr %40, i32 0, i32 2
  %42 = load i64, ptr %41, align 8
  store i64 %42, ptr %12, align 8
  store i32 %39, ptr %13, align 4
  %43 = call ptr @ast_calloc()
  store ptr %43, ptr %14, align 8
  %44 = load ptr, ptr %14, align 8
  call void @llvm.memcpy.p0.p0.i64(ptr align 8 %44, ptr align 8 %12, i64 8, i1 false)
  %45 = load i32, ptr %13, align 4
  %46 = load ptr, ptr %14, align 8
  %47 = getelementptr inbounds %struct.Ast_, ptr %46, i32 0, i32 2
  %48 = trunc i32 %45 to i8
  store i8 %48, ptr %47, align 4
  %49 = load ptr, ptr %14, align 8
  store ptr %49, ptr %31, align 8
  %50 = load ptr, ptr %30, align 8
  store ptr %50, ptr %16, align 8
  store i32 166, ptr %17, align 4
  %51 = load ptr, ptr %16, align 8
  call void @advance(ptr noundef %51) #4
  br label %52

52:                                               ; preds = %1
  %53 = load ptr, ptr %30, align 8
  store ptr %53, ptr %24, align 8
  store i32 19, ptr %25, align 4
  %54 = load ptr, ptr %24, align 8
  %55 = load i32, ptr %25, align 4
  store ptr %54, ptr %7, align 8
  store i32 %55, ptr %8, align 4
  %56 = load ptr, ptr %7, align 8
  %57 = getelementptr inbounds %struct.ParseContext_, ptr %56, i32 0, i32 1
  %58 = load i32, ptr %57, align 8
  %59 = load i32, ptr %8, align 4
  %60 = icmp eq i32 %58, %59
  br i1 %60, label %61, label %62

61:                                               ; preds = %52
  store i1 true, ptr %23, align 1
  br label %68

62:                                               ; preds = %52
  %63 = load ptr, ptr %24, align 8
  %64 = getelementptr inbounds %struct.ParseContext_, ptr %63, i32 0, i32 2
  %65 = load i32, ptr %25, align 4
  %66 = call ptr @token_type_to_string(i32 noundef %65) #4
  %67 = load i64, ptr %64, align 8
  call void (i64, ptr, ...) @sema_error_at(i64 %67, ptr noundef @.str.12, ptr noundef %66) #4
  store i1 false, ptr %23, align 1
  br label %68

68:                                               ; preds = %62, %61
  %69 = load i1, ptr %23, align 1
  br i1 %69, label %72, label %70

70:                                               ; preds = %68
  %71 = load ptr, ptr @poisoned_ast, align 8
  store ptr %71, ptr %29, align 8
  br label %226

72:                                               ; preds = %68
  %73 = load ptr, ptr %30, align 8
  call void @advance(ptr noundef %73)
  br label %74

74:                                               ; preds = %72
  %75 = load ptr, ptr %30, align 8
  store ptr %75, ptr %4, align 8
  %76 = load ptr, ptr %4, align 8
  %77 = getelementptr inbounds %struct.ParseContext_, ptr %76, i32 0, i32 5
  %78 = getelementptr inbounds %struct.Lexer, ptr %77, i32 0, i32 11
  %79 = load i32, ptr %78, align 8
  %80 = icmp eq i32 %79, 8
  br i1 %80, label %81, label %105

81:                                               ; preds = %74
  %82 = load ptr, ptr %30, align 8
  store ptr %82, ptr %2, align 8
  %83 = load ptr, ptr %2, align 8
  %84 = getelementptr inbounds %struct.TokenData, ptr %83, i32 0, i32 2
  %85 = load ptr, ptr %84, align 8
  %86 = load ptr, ptr %30, align 8
  %87 = getelementptr inbounds %struct.ParseContext_, ptr %86, i32 0, i32 2
  %88 = getelementptr inbounds %union.SourceSpan, ptr %87, i32 0, i32 0
  %89 = load i64, ptr %88, align 8
  %90 = call ptr @decl_new_var(ptr noundef %85, i64 %89, ptr noundef null, i32 noundef 13)
  store ptr %90, ptr %32, align 8
  %91 = load ptr, ptr %32, align 8
  %92 = call i32 @declid(ptr noundef %91)
  %93 = load ptr, ptr %31, align 8
  %94 = getelementptr inbounds %struct.Ast_, ptr %93, i32 0, i32 3
  %95 = getelementptr inbounds %struct.AstCtForeachStmt, ptr %94, i32 0, i32 0
  store i32 %92, ptr %95, align 8
  br label %96

96:                                               ; preds = %81
  %97 = load ptr, ptr %30, align 8
  %98 = call zeroext i1 (ptr, i32, ptr, ...) @consume(ptr noundef %97, i32 noundef 67, ptr noundef @.str.41)
  br i1 %98, label %101, label %99

99:                                               ; preds = %96
  %100 = load ptr, ptr @poisoned_ast, align 8
  store ptr %100, ptr %29, align 8
  br label %226

101:                                              ; preds = %96
  br label %102

102:                                              ; preds = %101
  %103 = load ptr, ptr %30, align 8
  store ptr %103, ptr %18, align 8
  store i32 8, ptr %19, align 4
  %104 = load ptr, ptr %18, align 8
  call void @advance(ptr noundef %104) #4
  br label %105

105:                                              ; preds = %102, %74
  %106 = load ptr, ptr %30, align 8
  store ptr %106, ptr %3, align 8
  %107 = load ptr, ptr %3, align 8
  %108 = getelementptr inbounds %struct.TokenData, ptr %107, i32 0, i32 2
  %109 = load ptr, ptr %108, align 8
  %110 = load ptr, ptr %30, align 8
  %111 = getelementptr inbounds %struct.ParseContext_, ptr %110, i32 0, i32 2
  %112 = getelementptr inbounds %union.SourceSpan, ptr %111, i32 0, i32 0
  %113 = load i64, ptr %112, align 8
  %114 = call ptr @decl_new_var(ptr noundef %109, i64 %113, ptr noundef null, i32 noundef 13)
  %115 = call i32 @declid(ptr noundef %114)
  %116 = load ptr, ptr %31, align 8
  %117 = getelementptr inbounds %struct.Ast_, ptr %116, i32 0, i32 3
  %118 = getelementptr inbounds %struct.AstCtForeachStmt, ptr %117, i32 0, i32 1
  store i32 %115, ptr %118, align 4
  br label %119

119:                                              ; preds = %105
  %120 = load ptr, ptr %30, align 8
  %121 = call zeroext i1 (ptr, i32, ptr, ...) @consume(ptr noundef %120, i32 noundef 67, ptr noundef @.str.42)
  br i1 %121, label %124, label %122

122:                                              ; preds = %119
  %123 = load ptr, ptr @poisoned_ast, align 8
  store ptr %123, ptr %29, align 8
  br label %226

124:                                              ; preds = %119
  br label %125

125:                                              ; preds = %124
  br label %126

126:                                              ; preds = %125
  %127 = load ptr, ptr %30, align 8
  %128 = call zeroext i1 (ptr, i32, ptr, ...) @consume(ptr noundef %127, i32 noundef 7, ptr noundef @.str.43)
  br i1 %128, label %131, label %129

129:                                              ; preds = %126
  %130 = load ptr, ptr @poisoned_ast, align 8
  store ptr %130, ptr %29, align 8
  br label %226

131:                                              ; preds = %126
  br label %132

132:                                              ; preds = %131
  %133 = load ptr, ptr %30, align 8
  %134 = call ptr @parse_expr(ptr noundef %133)
  store ptr %134, ptr %33, align 8
  %135 = load ptr, ptr %33, align 8
  store ptr %135, ptr %15, align 8
  %136 = load ptr, ptr %15, align 8
  %137 = icmp eq ptr %136, null
  br i1 %137, label %145, label %138

138:                                              ; preds = %132
  %139 = load ptr, ptr %15, align 8
  %140 = getelementptr inbounds %struct.Expr_, ptr %139, i32 0, i32 2
  %141 = load i16, ptr %140, align 8
  %142 = and i16 %141, 255
  %143 = zext i16 %142 to i32
  %144 = icmp ne i32 %143, 0
  br label %145

145:                                              ; preds = %138, %132
  %146 = phi i1 [ true, %132 ], [ %144, %138 ]
  br i1 %146, label %149, label %147

147:                                              ; preds = %145
  %148 = load ptr, ptr @poisoned_ast, align 8
  store ptr %148, ptr %29, align 8
  br label %226

149:                                              ; preds = %145
  %150 = load ptr, ptr %33, align 8
  %151 = call i32 @exprid(ptr noundef %150)
  %152 = load ptr, ptr %31, align 8
  %153 = getelementptr inbounds %struct.Ast_, ptr %152, i32 0, i32 3
  %154 = getelementptr inbounds %struct.AstCtForeachStmt, ptr %153, i32 0, i32 3
  store i32 %151, ptr %154, align 4
  br label %155

155:                                              ; preds = %149
  %156 = load ptr, ptr %30, align 8
  store ptr %156, ptr %27, align 8
  store i32 26, ptr %28, align 4
  %157 = load ptr, ptr %27, align 8
  %158 = load i32, ptr %28, align 4
  store ptr %157, ptr %5, align 8
  store i32 %158, ptr %6, align 4
  %159 = load ptr, ptr %5, align 8
  %160 = getelementptr inbounds %struct.ParseContext_, ptr %159, i32 0, i32 1
  %161 = load i32, ptr %160, align 8
  %162 = load i32, ptr %6, align 4
  %163 = icmp eq i32 %161, %162
  br i1 %163, label %164, label %165

164:                                              ; preds = %155
  store i1 true, ptr %26, align 1
  br label %171

165:                                              ; preds = %155
  %166 = load ptr, ptr %27, align 8
  %167 = getelementptr inbounds %struct.ParseContext_, ptr %166, i32 0, i32 2
  %168 = load i32, ptr %28, align 4
  %169 = call ptr @token_type_to_string(i32 noundef %168) #4
  %170 = load i64, ptr %167, align 8
  call void (i64, ptr, ...) @sema_error_at(i64 %170, ptr noundef @.str.12, ptr noundef %169) #4
  store i1 false, ptr %26, align 1
  br label %171

171:                                              ; preds = %165, %164
  %172 = load i1, ptr %26, align 1
  br i1 %172, label %175, label %173

173:                                              ; preds = %171
  %174 = load ptr, ptr @poisoned_ast, align 8
  store ptr %174, ptr %29, align 8
  br label %226

175:                                              ; preds = %171
  %176 = load ptr, ptr %30, align 8
  call void @advance(ptr noundef %176)
  br label %177

177:                                              ; preds = %175
  %178 = load ptr, ptr %31, align 8
  %179 = getelementptr inbounds %struct.Ast_, ptr %178, i32 0, i32 0
  %180 = getelementptr inbounds %union.SourceSpan, ptr %179, i32 0, i32 0
  %181 = load i64, ptr %180, align 8
  store i64 %181, ptr %9, align 8
  store i32 6, ptr %10, align 4
  %182 = call ptr @ast_calloc()
  store ptr %182, ptr %11, align 8
  %183 = load ptr, ptr %11, align 8
  call void @llvm.memcpy.p0.p0.i64(ptr align 8 %183, ptr align 8 %9, i64 8, i1 false)
  %184 = load i32, ptr %10, align 4
  %185 = load ptr, ptr %11, align 8
  %186 = getelementptr inbounds %struct.Ast_, ptr %185, i32 0, i32 2
  %187 = trunc i32 %184 to i8
  store i8 %187, ptr %186, align 4
  %188 = load ptr, ptr %11, align 8
  store ptr %188, ptr %34, align 8
  %189 = load ptr, ptr %34, align 8
  %190 = call i32 @astid(ptr noundef %189)
  %191 = load ptr, ptr %31, align 8
  %192 = getelementptr inbounds %struct.Ast_, ptr %191, i32 0, i32 3
  %193 = getelementptr inbounds %struct.AstCtForeachStmt, ptr %192, i32 0, i32 2
  store i32 %190, ptr %193, align 8
  %194 = load ptr, ptr %34, align 8
  %195 = getelementptr inbounds %struct.Ast_, ptr %194, i32 0, i32 3
  %196 = getelementptr inbounds %struct.AstCompoundStmt, ptr %195, i32 0, i32 0
  store ptr %196, ptr %35, align 8
  br label %197

197:                                              ; preds = %217, %177
  %198 = load ptr, ptr %30, align 8
  %199 = call zeroext i1 @try_consume(ptr noundef %198, i32 noundef 156)
  %200 = xor i1 %199, true
  br i1 %200, label %201, label %224

201:                                              ; preds = %197
  %202 = load ptr, ptr %30, align 8
  %203 = call ptr @parse_stmt(ptr noundef %202)
  store ptr %203, ptr %36, align 8
  %204 = load ptr, ptr %36, align 8
  store ptr %204, ptr %22, align 8
  %205 = load ptr, ptr %22, align 8
  %206 = icmp eq ptr %205, null
  br i1 %206, label %213, label %207

207:                                              ; preds = %201
  %208 = load ptr, ptr %22, align 8
  %209 = getelementptr inbounds %struct.Ast_, ptr %208, i32 0, i32 2
  %210 = load i8, ptr %209, align 4
  %211 = zext i8 %210 to i32
  %212 = icmp ne i32 %211, 0
  br label %213

213:                                              ; preds = %207, %201
  %214 = phi i1 [ true, %201 ], [ %212, %207 ]
  br i1 %214, label %217, label %215

215:                                              ; preds = %213
  %216 = load ptr, ptr @poisoned_ast, align 8
  store ptr %216, ptr %29, align 8
  br label %226

217:                                              ; preds = %213
  %218 = load ptr, ptr %36, align 8
  store ptr %218, ptr %37, align 8
  %219 = load ptr, ptr %37, align 8
  %220 = call i32 @astid(ptr noundef %219)
  %221 = load ptr, ptr %35, align 8
  store i32 %220, ptr %221, align 4
  %222 = load ptr, ptr %37, align 8
  %223 = getelementptr inbounds %struct.Ast_, ptr %222, i32 0, i32 1
  store ptr %223, ptr %35, align 8
  br label %197, !llvm.loop !13

224:                                              ; preds = %197
  %225 = load ptr, ptr %31, align 8
  store ptr %225, ptr %29, align 8
  br label %226

226:                                              ; preds = %224, %215, %173, %147, %129, %122, %99, %70
  %227 = load ptr, ptr %29, align 8
  ret ptr %227
}