; Function Attrs: nounwind uwtable
define internal fastcc ptr @parse_ct_foreach_stmt(ptr noundef %0) unnamed_addr #0 {
  %2 = getelementptr inbounds i8, ptr %0, i64 48
  %3 = load i64, ptr %2, align 8
  %4 = tail call ptr @vmem_alloc(ptr noundef nonnull @ast_arena, i64 noundef 48) #5
  store i64 %3, ptr %4, align 8
  %5 = getelementptr inbounds i8, ptr %4, i64 12
  store i8 11, ptr %5, align 4
  tail call void @advance(ptr noundef %0) #5
  %6 = getelementptr inbounds i8, ptr %0, i64 40
  %7 = load i32, ptr %6, align 8
  %8 = icmp eq i32 %7, 19
  br i1 %8, label %.critedge81, label %9

9:                                                ; preds = %1
  %10 = tail call ptr @token_type_to_string(i32 noundef 19) #5
  %11 = load i64, ptr %2, align 8
  tail call void (i64, ptr, ...) @sema_error_at(i64 %11, ptr noundef nonnull @.str.12, ptr noundef %10) #5
  %12 = load ptr, ptr @poisoned_ast, align 8
  br label %.loopexit

.critedge81:                                      ; preds = %1
  tail call void @advance(ptr noundef nonnull %0) #5
  %13 = getelementptr inbounds i8, ptr %0, i64 184
  %14 = load i32, ptr %13, align 8
  %15 = icmp eq i32 %14, 8
  br i1 %15, label %16, label %32

16:                                               ; preds = %.critedge81
  %17 = getelementptr inbounds i8, ptr %0, i64 16
  %18 = load ptr, ptr %17, align 8
  %19 = load i64, ptr %2, align 8
  %20 = tail call ptr @decl_new_var(ptr noundef %18, i64 %19, ptr noundef null, i32 noundef 13) #5
  %21 = load ptr, ptr @decl_arena, align 8
  %22 = ptrtoint ptr %20 to i64
  %23 = ptrtoint ptr %21 to i64
  %24 = sub i64 %22, %23
  %25 = sdiv exact i64 %24, 136
  %26 = trunc i64 %25 to i32
  %27 = getelementptr inbounds i8, ptr %4, i64 16
  store i32 %26, ptr %27, align 8
  %28 = tail call zeroext i1 (ptr, i32, ptr, ...) @consume(ptr noundef nonnull %0, i32 noundef 67, ptr noundef nonnull @.str.41) #5
  br i1 %28, label %31, label %29

29:                                               ; preds = %16
  %30 = load ptr, ptr @poisoned_ast, align 8
  br label %.loopexit

31:                                               ; preds = %16
  tail call void @advance(ptr noundef nonnull %0) #5
  br label %32

32:                                               ; preds = %31, %.critedge81
  %33 = getelementptr inbounds i8, ptr %0, i64 16
  %34 = load ptr, ptr %33, align 8
  %35 = load i64, ptr %2, align 8
  %36 = tail call ptr @decl_new_var(ptr noundef %34, i64 %35, ptr noundef null, i32 noundef 13) #5
  %37 = load ptr, ptr @decl_arena, align 8
  %38 = ptrtoint ptr %36 to i64
  %39 = ptrtoint ptr %37 to i64
  %40 = sub i64 %38, %39
  %41 = sdiv exact i64 %40, 136
  %42 = trunc i64 %41 to i32
  %43 = getelementptr inbounds i8, ptr %4, i64 20
  store i32 %42, ptr %43, align 4
  %44 = tail call zeroext i1 (ptr, i32, ptr, ...) @consume(ptr noundef nonnull %0, i32 noundef 67, ptr noundef nonnull @.str.42) #5
  br i1 %44, label %47, label %45

45:                                               ; preds = %32
  %46 = load ptr, ptr @poisoned_ast, align 8
  br label %.loopexit

47:                                               ; preds = %32
  %48 = tail call zeroext i1 (ptr, i32, ptr, ...) @consume(ptr noundef nonnull %0, i32 noundef 7, ptr noundef nonnull @.str.43) #5
  br i1 %48, label %51, label %49

49:                                               ; preds = %47
  %50 = load ptr, ptr @poisoned_ast, align 8
  br label %.loopexit

51:                                               ; preds = %47
  %52 = tail call ptr @parse_expr(ptr noundef nonnull %0) #5
  %53 = icmp eq ptr %52, null
  br i1 %53, label %.critedge, label %54

54:                                               ; preds = %51
  %55 = getelementptr inbounds i8, ptr %52, i64 16
  %56 = load i16, ptr %55, align 8
  %57 = and i16 %56, 255
  %.not = icmp eq i16 %57, 0
  br i1 %.not, label %59, label %.split

.split:                                           ; preds = %54
  %58 = ptrtoint ptr %52 to i64
  br label %.critedge

59:                                               ; preds = %54
  %60 = load ptr, ptr @poisoned_ast, align 8
  br label %.loopexit

.critedge:                                        ; preds = %51, %.split
  %.sink = phi i64 [ %58, %.split ], [ 0, %51 ]
  %.sink86 = load ptr, ptr @expr_arena, align 8
  %61 = ptrtoint ptr %.sink86 to i64
  %62 = sub i64 %.sink, %61
  %phi.call.in = sdiv exact i64 %62, 56
  %phi.call = trunc i64 %phi.call.in to i32
  %63 = getelementptr inbounds i8, ptr %4, i64 28
  store i32 %phi.call, ptr %63, align 4
  %64 = load i32, ptr %6, align 8
  %65 = icmp eq i32 %64, 26
  br i1 %65, label %.critedge83, label %66

66:                                               ; preds = %.critedge
  %67 = tail call ptr @token_type_to_string(i32 noundef 26) #5
  %68 = load i64, ptr %2, align 8
  tail call void (i64, ptr, ...) @sema_error_at(i64 %68, ptr noundef nonnull @.str.12, ptr noundef %67) #5
  %69 = load ptr, ptr @poisoned_ast, align 8
  br label %.loopexit

.critedge83:                                      ; preds = %.critedge
  tail call void @advance(ptr noundef nonnull %0) #5
  %70 = load i64, ptr %4, align 8
  %71 = tail call ptr @vmem_alloc(ptr noundef nonnull @ast_arena, i64 noundef 48) #5
  store i64 %70, ptr %71, align 8
  %72 = getelementptr inbounds i8, ptr %71, i64 12
  store i8 6, ptr %72, align 4
  %73 = load ptr, ptr @ast_arena, align 8
  %74 = ptrtoint ptr %71 to i64
  %75 = ptrtoint ptr %73 to i64
  %76 = sub i64 %74, %75
  %77 = sdiv exact i64 %76, 48
  %78 = trunc i64 %77 to i32
  %79 = getelementptr inbounds i8, ptr %4, i64 24
  store i32 %78, ptr %79, align 8
  %80 = tail call zeroext i1 @try_consume(ptr noundef nonnull %0, i32 noundef 156) #5
  br i1 %80, label %.loopexit, label %.lr.ph.preheader

.lr.ph.preheader:                                 ; preds = %.critedge83
  %81 = getelementptr inbounds i8, ptr %71, i64 16
  br label %.lr.ph

.lr.ph:                                           ; preds = %.lr.ph.preheader, %.critedge2
  %.07184 = phi ptr [ %92, %.critedge2 ], [ %81, %.lr.ph.preheader ]
  %82 = tail call ptr @parse_stmt(ptr noundef %0)
  %83 = icmp eq ptr %82, null
  br i1 %83, label %.critedge2, label %84

84:                                               ; preds = %.lr.ph
  %85 = getelementptr inbounds i8, ptr %82, i64 12
  %86 = load i8, ptr %85, align 4
  %.not79 = icmp eq i8 %86, 0
  br i1 %.not79, label %88, label %.split74

.split74:                                         ; preds = %84
  %87 = ptrtoint ptr %82 to i64
  br label %.critedge2

88:                                               ; preds = %84
  %89 = load ptr, ptr @poisoned_ast, align 8
  br label %.loopexit

.critedge2:                                       ; preds = %.lr.ph, %.split74
  %.sink87 = phi i64 [ %87, %.split74 ], [ 0, %.lr.ph ]
  %.sink89 = load ptr, ptr @ast_arena, align 8
  %90 = ptrtoint ptr %.sink89 to i64
  %91 = sub i64 %.sink87, %90
  %phi.call76.in = sdiv exact i64 %91, 48
  %phi.call76 = trunc i64 %phi.call76.in to i32
  store i32 %phi.call76, ptr %.07184, align 4
  %92 = getelementptr inbounds i8, ptr %82, i64 8
  %93 = tail call zeroext i1 @try_consume(ptr noundef %0, i32 noundef 156) #5
  br i1 %93, label %.loopexit, label %.lr.ph, !llvm.loop !15

.loopexit:                                        ; preds = %.critedge2, %.critedge83, %88, %66, %59, %49, %45, %29, %9
  %.072 = phi ptr [ %89, %88 ], [ %69, %66 ], [ %60, %59 ], [ %50, %49 ], [ %46, %45 ], [ %30, %29 ], [ %12, %9 ], [ %4, %.critedge83 ], [ %4, %.critedge2 ]
  ret ptr %.072
}